target datalayout = "e-m:e-p270:32:32-p271:32:32-p272:64:64-i64:64-i128:128-f80:128-n8:16:32:64-S128"
target triple = "x86_64-pc-linux-gnu"

@.str = private unnamed_addr constant [48 x i8] c"conjugate_gradient: unexpected length 0 vector\0A\00", align 1
@stderr = external global ptr, align 8
@.str.1 = private unnamed_addr constant [58 x i8] c"integer overflow when trying to allocate %zu * %zu bytes\0A\00", align 1
@.str.2 = private unnamed_addr constant [49 x i8] c"out of memory when trying to allocate %zu bytes\0A\00", align 1

; Function Attrs: inlinehint nounwind uwtable
define internal ptr @gv_calloc(i64 noundef %0, i64 noundef %1) #2 {
  %3 = alloca i64, align 8
  %4 = alloca i64, align 8
  %5 = alloca ptr, align 8
  store i64 %0, ptr %3, align 8, !tbaa !15
  store i64 %1, ptr %4, align 8, !tbaa !15
  %6 = load i64, ptr %3, align 8, !tbaa !15
  %7 = icmp ugt i64 %6, 0
  br i1 %7, label %8, label %18

8:                                                ; preds = %2
  %9 = load i64, ptr %3, align 8, !tbaa !15
  %10 = udiv i64 -1, %9
  %11 = load i64, ptr %4, align 8, !tbaa !15
  %12 = icmp ult i64 %10, %11
  br i1 %12, label %13, label %18

13:                                               ; preds = %8
  %14 = load ptr, ptr @stderr, align 8, !tbaa !17
  %15 = load i64, ptr %3, align 8, !tbaa !15
  %16 = load i64, ptr %4, align 8, !tbaa !15
  %17 = call i32 (ptr, ptr, ...) @fprintf(ptr noundef %14, ptr noundef @.str.1, i64 noundef %15, i64 noundef %16) #9
  call void @graphviz_exit(i32 noundef 1) #10
  unreachable

18:                                               ; preds = %8, %2
  call void @llvm.lifetime.start.p0(i64 8, ptr %5) #9
  %19 = load i64, ptr %3, align 8, !tbaa !15
  %20 = load i64, ptr %4, align 8, !tbaa !15
  %21 = call noalias ptr @calloc(i64 noundef %19, i64 noundef %20) #11
  store ptr %21, ptr %5, align 8, !tbaa !3
  %22 = load i64, ptr %3, align 8, !tbaa !15
  %23 = icmp ugt i64 %22, 0
  br i1 %23, label %24, label %36

24:                                               ; preds = %18
  %25 = load i64, ptr %4, align 8, !tbaa !15
  %26 = icmp ugt i64 %25, 0
  br i1 %26, label %27, label %36

27:                                               ; preds = %24
  %28 = load ptr, ptr %5, align 8, !tbaa !3
  %29 = icmp eq ptr %28, null
  br i1 %29, label %30, label %36

30:                                               ; preds = %27
  %31 = load ptr, ptr @stderr, align 8, !tbaa !17
  %32 = load i64, ptr %3, align 8, !tbaa !15
  %33 = load i64, ptr %4, align 8, !tbaa !15
  %34 = mul i64 %32, %33
  %35 = call i32 (ptr, ptr, ...) @fprintf(ptr noundef %31, ptr noundef @.str.2, i64 noundef %34) #9
  call void @graphviz_exit(i32 noundef 1) #10
  unreachable

36:                                               ; preds = %27, %24, %18
  %37 = load ptr, ptr %5, align 8, !tbaa !3
  call void @llvm.lifetime.end.p0(i64 8, ptr %5) #9
  ret ptr %37
}

; Function Attrs: nounwind uwtable
define i32 @conjugate_gradient_f(ptr noundef %0, ptr noundef %1, ptr noundef %2, i32 noundef %3, double noundef %4, i32 noundef %5, i1 noundef zeroext %6) #0 {
  %8 = alloca ptr, align 8
  %9 = alloca ptr, align 8
  %10 = alloca ptr, align 8
  %11 = alloca i32, align 4
  %12 = alloca double, align 8
  %13 = alloca i32, align 4
  %14 = alloca i8, align 1
  %15 = alloca i32, align 4
  %16 = alloca i32, align 4
  %17 = alloca double, align 8
  %18 = alloca double, align 8
  %19 = alloca double, align 8
  %20 = alloca double, align 8
  %21 = alloca double, align 8
  %22 = alloca ptr, align 8
  %23 = alloca ptr, align 8
  %24 = alloca ptr, align 8
  %25 = alloca ptr, align 8
  %26 = alloca ptr, align 8
  %27 = alloca ptr, align 8
  store ptr %0, ptr %8, align 8, !tbaa !19
  store ptr %1, ptr %9, align 8, !tbaa !7
  store ptr %2, ptr %10, align 8, !tbaa !7
  store i32 %3, ptr %11, align 4, !tbaa !9
  store double %4, ptr %12, align 8, !tbaa !11
  store i32 %5, ptr %13, align 4, !tbaa !9
  %28 = zext i1 %6 to i8
  store i8 %28, ptr %14, align 1, !tbaa !21
  call void @llvm.lifetime.start.p0(i64 4, ptr %15) #9
  call void @llvm.lifetime.start.p0(i64 4, ptr %16) #9
  store i32 0, ptr %16, align 4, !tbaa !9
  call void @llvm.lifetime.start.p0(i64 8, ptr %17) #9
  call void @llvm.lifetime.start.p0(i64 8, ptr %18) #9
  call void @llvm.lifetime.start.p0(i64 8, ptr %19) #9
  call void @llvm.lifetime.start.p0(i64 8, ptr %20) #9
  call void @llvm.lifetime.start.p0(i64 8, ptr %21) #9
  call void @llvm.lifetime.start.p0(i64 8, ptr %22) #9
  %29 = load i32, ptr %11, align 4, !tbaa !9
  %30 = sext i32 %29 to i64
  %31 = call ptr @gv_calloc(i64 noundef %30, i64 noundef 8)
  store ptr %31, ptr %22, align 8, !tbaa !7
  call void @llvm.lifetime.start.p0(i64 8, ptr %23) #9
  %32 = load i32, ptr %11, align 4, !tbaa !9
  %33 = sext i32 %32 to i64
  %34 = call ptr @gv_calloc(i64 noundef %33, i64 noundef 8)
  store ptr %34, ptr %23, align 8, !tbaa !7
  call void @llvm.lifetime.start.p0(i64 8, ptr %24) #9
  %35 = load i32, ptr %11, align 4, !tbaa !9
  %36 = sext i32 %35 to i64
  %37 = call ptr @gv_calloc(i64 noundef %36, i64 noundef 8)
  store ptr %37, ptr %24, align 8, !tbaa !7
  call void @llvm.lifetime.start.p0(i64 8, ptr %25) #9
  %38 = load i32, ptr %11, align 4, !tbaa !9
  %39 = sext i32 %38 to i64
  %40 = call ptr @gv_calloc(i64 noundef %39, i64 noundef 8)
  store ptr %40, ptr %25, align 8, !tbaa !7
  call void @llvm.lifetime.start.p0(i64 8, ptr %26) #9
  %41 = load i32, ptr %11, align 4, !tbaa !9
  %42 = sext i32 %41 to i64
  %43 = call ptr @gv_calloc(i64 noundef %42, i64 noundef 8)
  store ptr %43, ptr %26, align 8, !tbaa !7
  call void @llvm.lifetime.start.p0(i64 8, ptr %27) #9
  %44 = load i32, ptr %11, align 4, !tbaa !9
  %45 = sext i32 %44 to i64
  %46 = call ptr @gv_calloc(i64 noundef %45, i64 noundef 8)
  store ptr %46, ptr %27, align 8, !tbaa !7
  %47 = load i32, ptr %11, align 4, !tbaa !9
  %48 = load ptr, ptr %10, align 8, !tbaa !7
  %49 = load ptr, ptr %27, align 8, !tbaa !7
  call void @copy_vector(i32 noundef %47, ptr noundef %48, ptr noundef %49)
  %50 = load i8, ptr %14, align 1, !tbaa !21, !range !23, !noundef !24
  %51 = trunc i8 %50 to i1
  br i1 %51, label %52, label %57

52:                                               ; preds = %7
  %53 = load i32, ptr %11, align 4, !tbaa !9
  %54 = load ptr, ptr %27, align 8, !tbaa !7
  call void @orthog1(i32 noundef %53, ptr noundef %54)
  %55 = load i32, ptr %11, align 4, !tbaa !9
  %56 = load ptr, ptr %9, align 8, !tbaa !7
  call void @orthog1(i32 noundef %55, ptr noundef %56)
  br label %57

57:                                               ; preds = %52, %7
  %58 = load ptr, ptr %8, align 8, !tbaa !19
  %59 = load i32, ptr %11, align 4, !tbaa !9
  %60 = load ptr, ptr %9, align 8, !tbaa !7
  %61 = load ptr, ptr %25, align 8, !tbaa !7
  call void @right_mult_with_vector_f(ptr noundef %58, i32 noundef %59, ptr noundef %60, ptr noundef %61)
  %62 = load i32, ptr %11, align 4, !tbaa !9
  %63 = load ptr, ptr %27, align 8, !tbaa !7
  %64 = load ptr, ptr %25, align 8, !tbaa !7
  %65 = load ptr, ptr %22, align 8, !tbaa !7
  call void @vectors_subtraction(i32 noundef %62, ptr noundef %63, ptr noundef %64, ptr noundef %65)
  %66 = load i32, ptr %11, align 4, !tbaa !9
  %67 = load ptr, ptr %22, align 8, !tbaa !7
  %68 = load ptr, ptr %23, align 8, !tbaa !7
  call void @copy_vector(i32 noundef %66, ptr noundef %67, ptr noundef %68)
  %69 = load i32, ptr %11, align 4, !tbaa !9
  %70 = load ptr, ptr %22, align 8, !tbaa !7
  %71 = load ptr, ptr %22, align 8, !tbaa !7
  %72 = call double @vectors_inner_product(i32 noundef %69, ptr noundef %70, ptr noundef %71)
  store double %72, ptr %19, align 8, !tbaa !11
  store i32 0, ptr %15, align 4, !tbaa !9
  br label %73

73:                                               ; preds = %143, %57
  %74 = load i32, ptr %15, align 4, !tbaa !9
  %75 = load i32, ptr %13, align 4, !tbaa !9
  %76 = icmp slt i32 %74, %75
  br i1 %76, label %77, label %83

77:                                               ; preds = %73
  %78 = load i32, ptr %11, align 4, !tbaa !9
  %79 = load ptr, ptr %22, align 8, !tbaa !7
  %80 = call double @max_abs(i32 noundef %78, ptr noundef %79)
  %81 = load double, ptr %12, align 8, !tbaa !11
  %82 = fcmp ogt double %80, %81
  br label %83

83:                                               ; preds = %77, %73
  %84 = phi i1 [ false, %73 ], [ %82, %77 ]
  br i1 %84, label %85, label %146

85:                                               ; preds = %83
  %86 = load ptr, ptr %8, align 8, !tbaa !19
  %87 = load i32, ptr %11, align 4, !tbaa !9
  %88 = load ptr, ptr %23, align 8, !tbaa !7
  %89 = load ptr, ptr %24, align 8, !tbaa !7
  call void @right_mult_with_vector_f(ptr noundef %86, i32 noundef %87, ptr noundef %88, ptr noundef %89)
  %90 = load i32, ptr %11, align 4, !tbaa !9
  %91 = load ptr, ptr %23, align 8, !tbaa !7
  %92 = load ptr, ptr %24, align 8, !tbaa !7
  %93 = call double @vectors_inner_product(i32 noundef %90, ptr noundef %91, ptr noundef %92)
  store double %93, ptr %21, align 8, !tbaa !11
  %94 = load double, ptr %21, align 8, !tbaa !11
  %95 = fcmp oeq double %94, 0.000000e+00
  br i1 %95, label %96, label %97

96:                                               ; preds = %85
  br label %146

97:                                               ; preds = %85
  %98 = load double, ptr %19, align 8, !tbaa !11
  %99 = load double, ptr %21, align 8, !tbaa !11
  %100 = fdiv double %98, %99
  store double %100, ptr %17, align 8, !tbaa !11
  %101 = load i32, ptr %11, align 4, !tbaa !9
  %102 = load ptr, ptr %23, align 8, !tbaa !7
  %103 = load double, ptr %17, align 8, !tbaa !11
  %104 = load ptr, ptr %26, align 8, !tbaa !7
  call void @vectors_scalar_mult(i32 noundef %101, ptr noundef %102, double noundef %103, ptr noundef %104)
  %105 = load i32, ptr %11, align 4, !tbaa !9
  %106 = load ptr, ptr %9, align 8, !tbaa !7
  %107 = load ptr, ptr %26, align 8, !tbaa !7
  %108 = load ptr, ptr %9, align 8, !tbaa !7
  call void @vectors_addition(i32 noundef %105, ptr noundef %106, ptr noundef %107, ptr noundef %108)
  %109 = load i32, ptr %15, align 4, !tbaa !9
  %110 = load i32, ptr %13, align 4, !tbaa !9
  %111 = sub nsw i32 %110, 1
  %112 = icmp slt i32 %109, %111
  br i1 %112, label %113, label %142

113:                                              ; preds = %97
  %114 = load i32, ptr %11, align 4, !tbaa !9
  %115 = load ptr, ptr %24, align 8, !tbaa !7
  %116 = load double, ptr %17, align 8, !tbaa !11
  %117 = load ptr, ptr %24, align 8, !tbaa !7
  call void @vectors_scalar_mult(i32 noundef %114, ptr noundef %115, double noundef %116, ptr noundef %117)
  %118 = load i32, ptr %11, align 4, !tbaa !9
  %119 = load ptr, ptr %22, align 8, !tbaa !7
  %120 = load ptr, ptr %24, align 8, !tbaa !7
  %121 = load ptr, ptr %22, align 8, !tbaa !7
  call void @vectors_subtraction(i32 noundef %118, ptr noundef %119, ptr noundef %120, ptr noundef %121)
  %122 = load i32, ptr %11, align 4, !tbaa !9
  %123 = load ptr, ptr %22, align 8, !tbaa !7
  %124 = load ptr, ptr %22, align 8, !tbaa !7
  %125 = call double @vectors_inner_product(i32 noundef %122, ptr noundef %123, ptr noundef %124)
  store double %125, ptr %20, align 8, !tbaa !11
  %126 = load double, ptr %19, align 8, !tbaa !11
  %127 = fcmp oeq double %126, 0.000000e+00
  br i1 %127, label %128, label %129

128:                                              ; preds = %113
  store i32 1, ptr %16, align 4, !tbaa !9
  call void (ptr, ...) @agerrorf(ptr noundef @.str)
  br label %147

129:                                              ; preds = %113
  %130 = load double, ptr %20, align 8, !tbaa !11
  %131 = load double, ptr %19, align 8, !tbaa !11
  %132 = fdiv double %130, %131
  store double %132, ptr %18, align 8, !tbaa !11
  %133 = load double, ptr %20, align 8, !tbaa !11
  store double %133, ptr %19, align 8, !tbaa !11
  %134 = load i32, ptr %11, align 4, !tbaa !9
  %135 = load ptr, ptr %23, align 8, !tbaa !7
  %136 = load double, ptr %18, align 8, !tbaa !11
  %137 = load ptr, ptr %23, align 8, !tbaa !7
  call void @vectors_scalar_mult(i32 noundef %134, ptr noundef %135, double noundef %136, ptr noundef %137)
  %138 = load i32, ptr %11, align 4, !tbaa !9
  %139 = load ptr, ptr %22, align 8, !tbaa !7
  %140 = load ptr, ptr %23, align 8, !tbaa !7
  %141 = load ptr, ptr %23, align 8, !tbaa !7
  call void @vectors_addition(i32 noundef %138, ptr noundef %139, ptr noundef %140, ptr noundef %141)
  br label %142

142:                                              ; preds = %129, %97
  br label %143

143:                                              ; preds = %142
  %144 = load i32, ptr %15, align 4, !tbaa !9
  %145 = add nsw i32 %144, 1
  store i32 %145, ptr %15, align 4, !tbaa !9
  br label %73, !llvm.loop !25

146:                                              ; preds = %96, %83
  br label %147

147:                                              ; preds = %146, %128
  %148 = load ptr, ptr %22, align 8, !tbaa !7
  call void @free(ptr noundef %148) #9
  %149 = load ptr, ptr %23, align 8, !tbaa !7
  call void @free(ptr noundef %149) #9
  %150 = load ptr, ptr %24, align 8, !tbaa !7
  call void @free(ptr noundef %150) #9
  %151 = load ptr, ptr %25, align 8, !tbaa !7
  call void @free(ptr noundef %151) #9
  %152 = load ptr, ptr %26, align 8, !tbaa !7
  call void @free(ptr noundef %152) #9
  %153 = load ptr, ptr %27, align 8, !tbaa !7
  call void @free(ptr noundef %153) #9
  %154 = load i32, ptr %16, align 4, !tbaa !9
  call void @llvm.lifetime.end.p0(i64 8, ptr %27) #9
  call void @llvm.lifetime.end.p0(i64 8, ptr %26) #9
  call void @llvm.lifetime.end.p0(i64 8, ptr %25) #9
  call void @llvm.lifetime.end.p0(i64 8, ptr %24) #9
  call void @llvm.lifetime.end.p0(i64 8, ptr %23) #9
  call void @llvm.lifetime.end.p0(i64 8, ptr %22) #9
  call void @llvm.lifetime.end.p0(i64 8, ptr %21) #9
  call void @llvm.lifetime.end.p0(i64 8, ptr %20) #9
  call void @llvm.lifetime.end.p0(i64 8, ptr %19) #9
  call void @llvm.lifetime.end.p0(i64 8, ptr %18) #9
  call void @llvm.lifetime.end.p0(i64 8, ptr %17) #9
  call void @llvm.lifetime.end.p0(i64 4, ptr %16) #9
  call void @llvm.lifetime.end.p0(i64 4, ptr %15) #9
  ret i32 %154
}