; Function Attrs: nounwind uwtable
define range(i32 0, 2) i32 @conjugate_gradient_f(ptr noundef %0, ptr noundef %1, ptr noundef %2, i32 noundef %3, double noundef %4, i32 noundef %5, i1 noundef zeroext %6) local_unnamed_addr #0 {
  %8 = sext i32 %3 to i64
  %.not.i = icmp eq i32 %3, 0
  br i1 %.not.i, label %.thread.i110, label %9

9:                                                ; preds = %7
  %mul.ov.i = icmp slt i32 %3, 0
  br i1 %mul.ov.i, label %10, label %13

10:                                               ; preds = %9
  %11 = load ptr, ptr @stderr, align 8, !tbaa !3
  %12 = tail call i32 (ptr, ptr, ...) @fprintf(ptr noundef %11, ptr noundef nonnull @.str.1, i64 noundef range(i64 -2147483648, 2147483648) %8, i64 noundef 8) #8
  tail call fastcc void @graphviz_exit() #9
  unreachable

13:                                               ; preds = %9
  %14 = tail call noalias ptr @calloc(i64 noundef range(i64 -2147483648, 2147483648) %8, i64 noundef 8) #10
  %15 = icmp eq ptr %14, null
  br i1 %15, label %16, label %gv_calloc.exit

16:                                               ; preds = %13
  %17 = load ptr, ptr @stderr, align 8, !tbaa !3
  %18 = shl nuw nsw i64 %8, 3
  %19 = tail call i32 (ptr, ptr, ...) @fprintf(ptr noundef %17, ptr noundef nonnull @.str.2, i64 noundef %18) #8
  tail call fastcc void @graphviz_exit() #9
  unreachable

gv_calloc.exit:                                   ; preds = %13
  %20 = tail call noalias ptr @calloc(i64 noundef range(i64 -2147483648, 2147483648) %8, i64 noundef 8) #10
  %21 = icmp eq ptr %20, null
  br i1 %21, label %22, label %gv_calloc.exit91

22:                                               ; preds = %gv_calloc.exit
  %23 = load ptr, ptr @stderr, align 8, !tbaa !3
  %24 = shl nuw nsw i64 %8, 3
  %25 = tail call i32 (ptr, ptr, ...) @fprintf(ptr noundef %23, ptr noundef nonnull @.str.2, i64 noundef %24) #8
  tail call fastcc void @graphviz_exit() #9
  unreachable

gv_calloc.exit91:                                 ; preds = %gv_calloc.exit
  %26 = tail call noalias ptr @calloc(i64 noundef range(i64 -2147483648, 2147483648) %8, i64 noundef 8) #10
  %27 = icmp eq ptr %26, null
  br i1 %27, label %28, label %gv_calloc.exit96

28:                                               ; preds = %gv_calloc.exit91
  %29 = load ptr, ptr @stderr, align 8, !tbaa !3
  %30 = shl nuw nsw i64 %8, 3
  %31 = tail call i32 (ptr, ptr, ...) @fprintf(ptr noundef %29, ptr noundef nonnull @.str.2, i64 noundef %30) #8
  tail call fastcc void @graphviz_exit() #9
  unreachable

gv_calloc.exit96:                                 ; preds = %gv_calloc.exit91
  %32 = tail call noalias ptr @calloc(i64 noundef range(i64 -2147483648, 2147483648) %8, i64 noundef 8) #10
  %33 = icmp eq ptr %32, null
  br i1 %33, label %34, label %gv_calloc.exit101

34:                                               ; preds = %gv_calloc.exit96
  %35 = load ptr, ptr @stderr, align 8, !tbaa !3
  %36 = shl nuw nsw i64 %8, 3
  %37 = tail call i32 (ptr, ptr, ...) @fprintf(ptr noundef %35, ptr noundef nonnull @.str.2, i64 noundef %36) #8
  tail call fastcc void @graphviz_exit() #9
  unreachable

gv_calloc.exit101:                                ; preds = %gv_calloc.exit96
  %38 = tail call noalias ptr @calloc(i64 noundef range(i64 -2147483648, 2147483648) %8, i64 noundef 8) #10
  %39 = icmp eq ptr %38, null
  br i1 %39, label %40, label %gv_calloc.exit106

40:                                               ; preds = %gv_calloc.exit101
  %41 = load ptr, ptr @stderr, align 8, !tbaa !3
  %42 = shl nuw nsw i64 %8, 3
  %43 = tail call i32 (ptr, ptr, ...) @fprintf(ptr noundef %41, ptr noundef nonnull @.str.2, i64 noundef %42) #8
  tail call fastcc void @graphviz_exit() #9
  unreachable

.thread.i110:                                     ; preds = %7
  %44 = tail call noalias ptr @calloc(i64 noundef 0, i64 noundef 8) #10
  %45 = tail call noalias ptr @calloc(i64 noundef 0, i64 noundef 8) #10
  %46 = tail call noalias ptr @calloc(i64 noundef 0, i64 noundef 8) #10
  %47 = tail call noalias ptr @calloc(i64 noundef 0, i64 noundef 8) #10
  %48 = tail call noalias ptr @calloc(i64 noundef 0, i64 noundef 8) #10
  %49 = tail call noalias ptr @calloc(i64 noundef 0, i64 noundef 8) #10
  br label %gv_calloc.exit111

gv_calloc.exit106:                                ; preds = %gv_calloc.exit101
  %50 = tail call noalias ptr @calloc(i64 noundef range(i64 -2147483648, 2147483648) %8, i64 noundef 8) #10
  %51 = icmp eq ptr %50, null
  br i1 %51, label %52, label %gv_calloc.exit111

52:                                               ; preds = %gv_calloc.exit106
  %53 = load ptr, ptr @stderr, align 8, !tbaa !3
  %54 = shl nuw nsw i64 %8, 3
  %55 = tail call i32 (ptr, ptr, ...) @fprintf(ptr noundef %53, ptr noundef nonnull @.str.2, i64 noundef %54) #8
  tail call fastcc void @graphviz_exit() #9
  unreachable

gv_calloc.exit111:                                ; preds = %.thread.i110, %gv_calloc.exit106
  %56 = phi ptr [ %48, %.thread.i110 ], [ %38, %gv_calloc.exit106 ]
  %57 = phi ptr [ %46, %.thread.i110 ], [ %26, %gv_calloc.exit106 ]
  %58 = phi ptr [ %44, %.thread.i110 ], [ %14, %gv_calloc.exit106 ]
  %59 = phi ptr [ %45, %.thread.i110 ], [ %20, %gv_calloc.exit106 ]
  %60 = phi ptr [ %47, %.thread.i110 ], [ %32, %gv_calloc.exit106 ]
  %61 = phi ptr [ %49, %.thread.i110 ], [ %50, %gv_calloc.exit106 ]
  tail call void @copy_vector(i32 noundef %3, ptr noundef %2, ptr noundef %61) #11
  br i1 %6, label %62, label %63

62:                                               ; preds = %gv_calloc.exit111
  tail call void @orthog1(i32 noundef %3, ptr noundef %61) #11
  tail call void @orthog1(i32 noundef %3, ptr noundef %1) #11
  br label %63

63:                                               ; preds = %62, %gv_calloc.exit111
  tail call void @right_mult_with_vector_f(ptr noundef %0, i32 noundef %3, ptr noundef %1, ptr noundef %60) #11
  tail call void @vectors_subtraction(i32 noundef %3, ptr noundef %61, ptr noundef %60, ptr noundef %58) #11
  tail call void @copy_vector(i32 noundef %3, ptr noundef %58, ptr noundef %59) #11
  %64 = tail call double @vectors_inner_product(i32 noundef %3, ptr noundef %58, ptr noundef %58) #11
  %65 = icmp sgt i32 %5, 0
  br i1 %65, label %.lr.ph, label %.critedge

.lr.ph:                                           ; preds = %63
  %66 = add nsw i32 %5, -1
  br label %67

67:                                               ; preds = %.lr.ph, %82
  %.0118 = phi i32 [ 0, %.lr.ph ], [ %83, %82 ]
  %.084117 = phi double [ %64, %.lr.ph ], [ %.1, %82 ]
  %68 = tail call double @max_abs(i32 noundef %3, ptr noundef %58) #11
  %69 = fcmp ogt double %68, %4
  br i1 %69, label %70, label %.critedge

70:                                               ; preds = %67
  tail call void @right_mult_with_vector_f(ptr noundef %0, i32 noundef %3, ptr noundef %59, ptr noundef %57) #11
  %71 = tail call double @vectors_inner_product(i32 noundef %3, ptr noundef %59, ptr noundef %57) #11
  %72 = fcmp oeq double %71, 0.000000e+00
  br i1 %72, label %.critedge, label %73

73:                                               ; preds = %70
  %74 = fdiv double %.084117, %71
  tail call void @vectors_scalar_mult(i32 noundef %3, ptr noundef %59, double noundef %74, ptr noundef %56) #11
  tail call void @vectors_addition(i32 noundef %3, ptr noundef %1, ptr noundef %56, ptr noundef %1) #11
  %75 = icmp slt i32 %.0118, %66
  br i1 %75, label %76, label %82

76:                                               ; preds = %73
  tail call void @vectors_scalar_mult(i32 noundef %3, ptr noundef %57, double noundef %74, ptr noundef %57) #11
  tail call void @vectors_subtraction(i32 noundef %3, ptr noundef %58, ptr noundef %57, ptr noundef %58) #11
  %77 = tail call double @vectors_inner_product(i32 noundef %3, ptr noundef %58, ptr noundef %58) #11
  %78 = fcmp oeq double %.084117, 0.000000e+00
  br i1 %78, label %79, label %80

79:                                               ; preds = %76
  tail call void (ptr, ...) @agerrorf(ptr noundef nonnull @.str) #11
  br label %.critedge

80:                                               ; preds = %76
  %81 = fdiv double %77, %.084117
  tail call void @vectors_scalar_mult(i32 noundef %3, ptr noundef %59, double noundef %81, ptr noundef %59) #11
  tail call void @vectors_addition(i32 noundef %3, ptr noundef %58, ptr noundef %59, ptr noundef %59) #11
  br label %82

82:                                               ; preds = %73, %80
  %.1 = phi double [ %77, %80 ], [ %.084117, %73 ]
  %83 = add nuw nsw i32 %.0118, 1
  %exitcond.not = icmp eq i32 %83, %5
  br i1 %exitcond.not, label %.critedge, label %67, !llvm.loop !10

.critedge:                                        ; preds = %82, %70, %67, %63, %79
  %.083 = phi i32 [ 1, %79 ], [ 0, %63 ], [ 0, %67 ], [ 0, %70 ], [ 0, %82 ]
  tail call void @free(ptr noundef %58) #11
  tail call void @free(ptr noundef %59) #11
  tail call void @free(ptr noundef %57) #11
  tail call void @free(ptr noundef %60) #11
  tail call void @free(ptr noundef %56) #11
  tail call void @free(ptr noundef %61) #11
  ret i32 %.083
}